-----BEGIN RSA PRIVATE KEY-----
MIICWwIBAAKBgQC4w3PmUq0muIfsWvwh4FQb4lJ4K7/J+2ENNcHFbxFEdJVORp0M
hWQahWZwYziKbp4k7zGBK+WWIu7sXwyP0t6fguEhG5EfYiiXoYo0A/OrJofR2tXG
AtfWsDHrNQkpacXxzu9/oJYy840O12ESBmCEsyD6bzskScLxzqkFKVsP+QIDAQAB
AoGAT04Fl1zxWWdnYDoFcvz43Scdwtr0bVvq4mKqk3YC8WEhHQIOMuumdgPAXokY
IcMtOik5FHqlBvZjmy2JFMqsJwvBDPxQtncWe1SImJPIZvw2ho2GdoE8U0f30f1t
sRbuUdWK3DWuJ4mTEwUAbrsxp/K08b6CO8Jj5p+YnAS2vMkCQQDwYl1vPjEt6eyB
BZ0Woc4PHx7/Fx/Xwb/473PGMQb9/eauqjBYqx5Brws/WuC6UJUOE4vIVYUhSrDV
x7VsyPwjAkEAxMQarkGKjeU0qhCslUDf+tZomNPtEJPos1YbJDjjKokUGbrtm7tF
/HNCL+ZqankS+FCb2buvBhvkQoLQdjKnMwJAOfuADhUyR6DlKznvakYdLgiTsXQi
eiiB5cncYzHwPdPAkOD8SGb+JVnTnLSPAGHvkjWkwe3e7ujVPrutR1AzgQJAaZJ6
akKaL5XqEtFNd+tOAYzmpBEZIgrqEMbDW0T2hYz07vU/pY3ueAvzWDX9pND/X6II
bONpfhKa/yCm7rQwxwJARM1Mg3cXQeoXR1uCvy6xZ3huLIfkK1aR00j9DiNngX3q
jnhYYBThcA+0jPKa2D5fIbVzYiSGkjUBErHIVQbgGg==
-----END RSA PRIVATE KEY-----
Certificate:
    Data:
        Version: 3 (0x2)
        Serial Number: 1 (0x1)
    Signature Algorithm: md5WithRSAEncryption
        Issuer: C=GB, ST=Cambridgeshire, L=Cambridge, OU=OEF Search, O=Fetch.AI, CN=Fetch.AI OEF Search/emailAddress=info@fetch.ai
        Validity
            Not Before: Feb  6 14:49:12 2019 GMT
            Not After : Feb  3 14:49:12 2029 GMT
        Subject: C=GB, ST=Cambridgeshire, O=Fetch.AI, OU=OEF Search, L=Cambridge, CN=OEF Search/emailAddress=katie.lucas@fetch.ai
        Subject Public Key Info:
            Public Key Algorithm: rsaEncryption
                Public-Key: (1024 bit)
                Modulus:
                    00:b8:c3:73:e6:52:ad:26:b8:87:ec:5a:fc:21:e0:
                    54:1b:e2:52:78:2b:bf:c9:fb:61:0d:35:c1:c5:6f:
                    11:44:74:95:4e:46:9d:0c:85:64:1a:85:66:70:63:
                    38:8a:6e:9e:24:ef:31:81:2b:e5:96:22:ee:ec:5f:
                    0c:8f:d2:de:9f:82:e1:21:1b:91:1f:62:28:97:a1:
                    8a:34:03:f3:ab:26:87:d1:da:d5:c6:02:d7:d6:b0:
                    31:eb:35:09:29:69:c5:f1:ce:ef:7f:a0:96:32:f3:
                    8d:0e:d7:61:12:06:60:84:b3:20:fa:6f:3b:24:49:
                    c2:f1:ce:a9:05:29:5b:0f:f9
                Exponent: 65537 (0x10001)
        X509v3 extensions:
            X509v3 Basic Constraints: critical
                CA:FALSE
            X509v3 Subject Key Identifier: 
                27:DB:7F:24:66:FB:D8:45:AF:84:B7:8E:D5:19:83:29:1A:C9:63:0C
            Netscape Comment: 
                Generated by Fetch.AI Certificate Authority
    Signature Algorithm: md5WithRSAEncryption
         2d:52:1b:fe:45:5a:e9:7a:6e:c8:64:98:6d:76:20:f2:d9:d5:
         a7:cb:93:9b:82:38:51:f8:45:df:0d:b5:2b:d2:ae:8e:de:41:
         4f:dd:57:1b:07:00:b7:da:98:ac:52:21:44:88:38:02:fd:d5:
         1c:8b:78:75:1a:91:04:7e:bf:4a:21:af:e7:a6:bb:08:02:9d:
         25:68:a1:ec:7d:15:92:b3:52:a3:12:00:de:e4:37:df:67:63:
         68:a1:c2:9c:87:c3:38:3a:25:db:eb:fb:7d:81:c7:62:43:44:
         46:99:14:b5:c5:86:90:4f:91:02:e7:e5:89:48:84:cb:49:2f:
         ab:c6
-----BEGIN CERTIFICATE-----
MIIDHTCCAoagAwIBAgIBATANBgkqhkiG9w0BAQQFADCBnjELMAkGA1UEBhMCR0Ix
FzAVBgNVBAgMDkNhbWJyaWRnZXNoaXJlMRIwEAYDVQQHDAlDYW1icmlkZ2UxEzAR
BgNVBAsMCk9FRiBTZWFyY2gxETAPBgNVBAoMCEZldGNoLkFJMRwwGgYDVQQDDBNG
ZXRjaC5BSSBPRUYgU2VhcmNoMRwwGgYJKoZIhvcNAQkBFg1pbmZvQGZldGNoLmFp
MB4XDTE5MDIwNjE0NDkxMloXDTI5MDIwMzE0NDkxMlowgZwxCzAJBgNVBAYTAkdC
MRcwFQYDVQQIDA5DYW1icmlkZ2VzaGlyZTERMA8GA1UECgwIRmV0Y2guQUkxEzAR
BgNVBAsMCk9FRiBTZWFyY2gxEjAQBgNVBAcMCUNhbWJyaWRnZTETMBEGA1UEAwwK
T0VGIFNlYXJjaDEjMCEGCSqGSIb3DQEJARYUa2F0aWUubHVjYXNAZmV0Y2guYWkw
gZ8wDQYJKoZIhvcNAQEBBQADgY0AMIGJAoGBALjDc+ZSrSa4h+xa/CHgVBviUngr
v8n7YQ01wcVvEUR0lU5GnQyFZBqFZnBjOIpuniTvMYEr5ZYi7uxfDI/S3p+C4SEb
kR9iKJehijQD86smh9Ha1cYC19awMes1CSlpxfHO73+gljLzjQ7XYRIGYISzIPpv
OyRJwvHOqQUpWw/5AgMBAAGjazBpMAwGA1UdEwEB/wQCMAAwHQYDVR0OBBYEFCfb
fyRm+9hFr4S3jtUZgykayWMMMDoGCWCGSAGG+EIBDQQtFitHZW5lcmF0ZWQgYnkg
RmV0Y2guQUkgQ2VydGlmaWNhdGUgQXV0aG9yaXR5MA0GCSqGSIb3DQEBBAUAA4GB
AC1SG/5FWul6bshkmG12IPLZ1afLk5uCOFH4Rd8NtSvSro7eQU/dVxsHALfamKxS
IUSIOAL91RyLeHUakQR+v0ohr+emuwgCnSVooex9FZKzUqMSAN7kN99nY2ihwpyH
wzg6Jdvr+32Bx2JDREaZFLXFhpBPkQLn5YlIhMtJL6vG
-----END CERTIFICATE-----
