Certificate:
    Data:
        Version: 3 (0x2)
        Serial Number: 8 (0x8)
    Signature Algorithm: sha256WithRSAEncryption
        Issuer: C=GB, ST=Cambridgeshire, L=Cambridge, OU=OEF Search, O=Fetch.AI, CN=Fetch.AI OEF Search/emailAddress=info@fetch.ai
        Validity
            Not Before: Feb 13 13:56:44 2019 GMT
            Not After : Feb 10 13:56:44 2029 GMT
        Subject: C=GB, ST=Cambridgeshire, O=Fetch.AI, OU=OEF Search 5, L=Cambridge, CN=search.oef.economicagents.com/emailAddress=katie.lucas@fetch.ai
        Subject Public Key Info:
            Public Key Algorithm: rsaEncryption
                Public-Key: (2048 bit)
                Modulus:
                    00:bb:60:61:7d:4a:88:ff:7a:a2:06:b1:42:98:4a:
                    07:4a:0b:5d:1f:2f:67:ef:cc:ab:54:af:98:68:b8:
                    f9:de:5d:23:92:32:3f:f2:f6:9b:c3:ea:d3:56:49:
                    b4:62:ea:fe:4f:e2:fd:42:e4:7b:77:ca:4a:0b:7a:
                    cc:02:8e:bd:22:9d:64:a8:f0:3f:b5:bc:96:6c:57:
                    8a:a4:2b:09:f2:2a:99:b8:02:58:54:c8:fb:75:13:
                    41:56:4d:2a:f0:2e:45:36:0b:22:d6:e8:9b:df:db:
                    1a:5c:90:a6:94:b1:98:83:39:c9:78:58:a4:e2:9a:
                    a0:bf:e9:17:c9:dc:75:f6:21:c4:6e:09:bf:dc:30:
                    6e:c8:8c:0d:70:f9:cb:b1:d5:ee:52:dc:17:2f:b5:
                    9d:bb:0a:b4:95:24:45:69:b8:3f:78:b6:a4:58:7f:
                    ca:9d:3b:53:6e:bc:b6:6b:d9:c1:10:08:7e:4c:ee:
                    8a:dc:72:1b:0f:7d:51:e8:53:a6:45:b1:14:12:09:
                    b0:ac:88:75:08:6d:54:39:a5:fc:6c:b0:21:7a:71:
                    98:2a:33:5a:10:32:79:d3:7b:bf:16:97:f3:c2:fa:
                    1b:ec:c7:1a:31:6f:a6:2e:5d:9f:3f:9e:4e:31:a7:
                    94:1c:49:ee:85:57:47:89:68:58:d9:00:38:5d:32:
                    6f:b7
                Exponent: 65537 (0x10001)
        X509v3 extensions:
            X509v3 Basic Constraints: critical
                CA:FALSE
            X509v3 Subject Key Identifier: 
                E6:E8:5A:FA:CD:80:C6:05:B5:AF:62:96:2E:AD:48:31:0B:DB:1F:F3
            Netscape Comment: 
                Generated by Fetch.AI Certificate Authority
            X509v3 Subject Alternative Name: 
                DNS:127.0.0.1, DNS:localhost, DNS:::1, DNS:fe80::1
    Signature Algorithm: sha256WithRSAEncryption
         ac:75:62:93:f3:9d:82:e0:4e:06:19:56:60:4a:a0:ab:33:7a:
         69:31:af:f7:29:6f:9b:55:29:ac:f2:61:78:0a:d5:9c:fc:67:
         d6:47:b3:11:63:14:65:f1:c6:5c:68:10:3a:22:21:87:53:4d:
         b6:95:d4:5b:85:dd:12:c5:c7:92:46:c8:11:03:f3:99:1d:6b:
         f8:34:b0:55:c6:c8:b2:df:4c:43:3a:2f:97:96:e0:dd:70:6b:
         35:6c:53:b5:d8:59:64:17:43:ed:b7:97:32:cf:a5:f4:9a:c1:
         0d:6a:69:22:a7:ec:ed:4c:bc:53:ec:75:f6:dd:0a:dc:69:22:
         0d:47:2d:93:24:80:eb:01:d0:a7:2d:b6:a0:fe:f2:a6:d9:50:
         61:86:0b:65:76:38:7f:e1:9d:2f:9c:a4:85:df:d9:c5:61:9f:
         aa:38:7d:31:c5:d8:dc:bf:da:43:ba:08:72:81:db:1c:fa:42:
         8b:b3:41:76:d8:35:40:81:45:5b:69:8f:27:d7:3a:64:0e:f9:
         ae:9e:2e:f4:81:3e:ac:26:0d:fc:52:9d:9c:39:2a:d5:1c:e1:
         6e:c0:bc:b3:62:5a:44:96:dc:01:b6:fd:be:ed:ec:25:63:0a:
         56:2e:7c:96:1c:91:48:45:ca:47:4c:50:3c:59:49:60:d8:2f:
         20:e0:46:01
-----BEGIN CERTIFICATE-----
MIIEaDCCA1CgAwIBAgIBCDANBgkqhkiG9w0BAQsFADCBnjELMAkGA1UEBhMCR0Ix
FzAVBgNVBAgMDkNhbWJyaWRnZXNoaXJlMRIwEAYDVQQHDAlDYW1icmlkZ2UxEzAR
BgNVBAsMCk9FRiBTZWFyY2gxETAPBgNVBAoMCEZldGNoLkFJMRwwGgYDVQQDDBNG
ZXRjaC5BSSBPRUYgU2VhcmNoMRwwGgYJKoZIhvcNAQkBFg1pbmZvQGZldGNoLmFp
MB4XDTE5MDIxMzEzNTY0NFoXDTI5MDIxMDEzNTY0NFowgbExCzAJBgNVBAYTAkdC
MRcwFQYDVQQIDA5DYW1icmlkZ2VzaGlyZTERMA8GA1UECgwIRmV0Y2guQUkxFTAT
BgNVBAsMDE9FRiBTZWFyY2ggNTESMBAGA1UEBwwJQ2FtYnJpZGdlMSYwJAYDVQQD
DB1zZWFyY2gub2VmLmVjb25vbWljYWdlbnRzLmNvbTEjMCEGCSqGSIb3DQEJARYU
a2F0aWUubHVjYXNAZmV0Y2guYWkwggEiMA0GCSqGSIb3DQEBAQUAA4IBDwAwggEK
AoIBAQC7YGF9Soj/eqIGsUKYSgdKC10fL2fvzKtUr5houPneXSOSMj/y9pvD6tNW
SbRi6v5P4v1C5Ht3ykoLeswCjr0inWSo8D+1vJZsV4qkKwnyKpm4AlhUyPt1E0FW
TSrwLkU2CyLW6Jvf2xpckKaUsZiDOcl4WKTimqC/6RfJ3HX2IcRuCb/cMG7IjA1w
+cux1e5S3BcvtZ27CrSVJEVpuD94tqRYf8qdO1NuvLZr2cEQCH5M7orcchsPfVHo
U6ZFsRQSCbCsiHUIbVQ5pfxssCF6cZgqM1oQMnnTe78Wl/PC+hvsxxoxb6YuXZ8/
nk4xp5QcSe6FV0eJaFjZADhdMm+3AgMBAAGjgZswgZgwDAYDVR0TAQH/BAIwADAd
BgNVHQ4EFgQU5uha+s2AxgW1r2KWLq1IMQvbH/MwOgYJYIZIAYb4QgENBC0WK0dl
bmVyYXRlZCBieSBGZXRjaC5BSSBDZXJ0aWZpY2F0ZSBBdXRob3JpdHkwLQYDVR0R
BCYwJIIJMTI3LjAuMC4xgglsb2NhbGhvc3SCAzo6MYIHZmU4MDo6MTANBgkqhkiG
9w0BAQsFAAOCAQEArHVik/OdguBOBhlWYEqgqzN6aTGv9ylvm1UprPJheArVnPxn
1kezEWMUZfHGXGgQOiIhh1NNtpXUW4XdEsXHkkbIEQPzmR1r+DSwVcbIst9MQzov
l5bg3XBrNWxTtdhZZBdD7beXMs+l9JrBDWppIqfs7Uy8U+x19t0K3GkiDUctkySA
6wHQpy22oP7yptlQYYYLZXY4f+GdL5ykhd/ZxWGfqjh9McXY3L/aQ7oIcoHbHPpC
i7NBdtg1QIFFW2mPJ9c6ZA75rp4u9IE+rCYN/FKdnDkq1RzhbsC8s2JaRJbcAbb9
vu3sJWMKVi58lhyRSEXKR0xQPFlJYNgvIOBGAQ==
-----END CERTIFICATE-----
